target datalayout = "e-m:e-p270:32:32-p271:32:32-p272:64:64-i64:64-i128:128-f80:128-n8:16:32:64-S128"
target triple = "x86_64-pc-linux-gnu"

%struct.H5O_iter_cvt_t = type { ptr, ptr }
%struct.H5O_mesg_t = type { ptr, i8, i8, i32, i32, ptr, ptr, i64 }

@.str = private unnamed_addr constant [106 x i8] c"generated/home/dtcxzyw/WorkSpace/Projects/compilers/llvm-opt-benchmark/bench/hdf5/hdf5/src/H5Oattribute.c\00", align 1
@H5E_OHDR_g = external global i64, align 8
@H5E_CANTINSERT_g = external global i64, align 8
@.str.10 = private unnamed_addr constant [31 x i8] c"unable to add to dense storage\00", align 1
@H5E_CANTDELETE_g = external global i64, align 8
@__func__.H5O__attr_to_dense_cb = private unnamed_addr constant [22 x i8] c"H5O__attr_to_dense_cb\00", align 1
@.str.53 = private unnamed_addr constant [36 x i8] c"unable to convert into null message\00", align 1

; Function Attrs: nounwind uwtable
define internal i32 @H5O__attr_to_dense_cb(ptr noundef %0, ptr noundef %1, i32 noundef %2, ptr noundef %3, ptr noundef %4) #0 {
  %6 = alloca ptr, align 8
  %7 = alloca ptr, align 8
  %8 = alloca i32, align 4
  %9 = alloca ptr, align 8
  %10 = alloca ptr, align 8
  %11 = alloca ptr, align 8
  %12 = alloca ptr, align 8
  %13 = alloca i32, align 4
  %14 = alloca i8, align 1
  store ptr %0, ptr %6, align 8
  store ptr %1, ptr %7, align 8
  store i32 %2, ptr %8, align 4
  store ptr %3, ptr %9, align 8
  store ptr %4, ptr %10, align 8
  %15 = load ptr, ptr %10, align 8
  store ptr %15, ptr %11, align 8
  %16 = load ptr, ptr %7, align 8
  %17 = getelementptr inbounds %struct.H5O_mesg_t, ptr %16, i32 0, i32 5
  %18 = load ptr, ptr %17, align 8
  store ptr %18, ptr %12, align 8
  store i32 0, ptr %13, align 4
  store i8 0, ptr %14, align 1
  %19 = load ptr, ptr %11, align 8
  %20 = getelementptr inbounds %struct.H5O_iter_cvt_t, ptr %19, i32 0, i32 0
  %21 = load ptr, ptr %20, align 8
  %22 = load ptr, ptr %11, align 8
  %23 = getelementptr inbounds %struct.H5O_iter_cvt_t, ptr %22, i32 0, i32 1
  %24 = load ptr, ptr %23, align 8
  %25 = load ptr, ptr %12, align 8
  %26 = call i32 @H5A__dense_insert(ptr noundef %21, ptr noundef %24, ptr noundef %25)
  %27 = icmp slt i32 %26, 0
  br i1 %27, label %28, label %43

28:                                               ; preds = %5
  br label %29

29:                                               ; preds = %28
  br label %30

30:                                               ; preds = %29
  br label %31

31:                                               ; preds = %30
  %32 = load i64, ptr @H5E_OHDR_g, align 8
  %33 = load i64, ptr @H5E_CANTINSERT_g, align 8
  %34 = call i32 (ptr, ptr, i32, i64, i64, ptr, ...) @H5E_printf_stack(ptr noundef @.str, ptr noundef @__func__.H5O__attr_to_dense_cb, i32 noundef 173, i64 noundef %32, i64 noundef %33, ptr noundef @.str.10)
  br label %35

35:                                               ; preds = %31
  store i8 1, ptr %14, align 1
  %36 = load i8, ptr %14, align 1
  %37 = trunc i8 %36 to i1
  %38 = zext i1 %37 to i8
  store i8 %38, ptr %14, align 1
  br label %39

39:                                               ; preds = %35
  br label %40

40:                                               ; preds = %39
  store i32 -1, ptr %13, align 4
  br label %68

41:                                               ; No predecessors!
  br label %42

42:                                               ; preds = %41
  br label %43

43:                                               ; preds = %42, %5
  %44 = load ptr, ptr %11, align 8
  %45 = getelementptr inbounds %struct.H5O_iter_cvt_t, ptr %44, i32 0, i32 0
  %46 = load ptr, ptr %45, align 8
  %47 = load ptr, ptr %6, align 8
  %48 = load ptr, ptr %7, align 8
  %49 = call i32 @H5O__release_mesg(ptr noundef %46, ptr noundef %47, ptr noundef %48, i1 noundef zeroext false)
  %50 = icmp slt i32 %49, 0
  br i1 %50, label %51, label %66

51:                                               ; preds = %43
  br label %52

52:                                               ; preds = %51
  br label %53

53:                                               ; preds = %52
  br label %54

54:                                               ; preds = %53
  %55 = load i64, ptr @H5E_OHDR_g, align 8
  %56 = load i64, ptr @H5E_CANTDELETE_g, align 8
  %57 = call i32 (ptr, ptr, i32, i64, i64, ptr, ...) @H5E_printf_stack(ptr noundef @.str, ptr noundef @__func__.H5O__attr_to_dense_cb, i32 noundef 178, i64 noundef %55, i64 noundef %56, ptr noundef @.str.53)
  br label %58

58:                                               ; preds = %54
  store i8 1, ptr %14, align 1
  %59 = load i8, ptr %14, align 1
  %60 = trunc i8 %59 to i1
  %61 = zext i1 %60 to i8
  store i8 %61, ptr %14, align 1
  br label %62

62:                                               ; preds = %58
  br label %63

63:                                               ; preds = %62
  store i32 -1, ptr %13, align 4
  br label %68

64:                                               ; No predecessors!
  br label %65

65:                                               ; preds = %64
  br label %66

66:                                               ; preds = %65, %43
  %67 = load ptr, ptr %9, align 8
  store i32 1, ptr %67, align 4
  br label %68

68:                                               ; preds = %66, %63, %40
  %69 = load i32, ptr %13, align 4
  ret i32 %69
}