; Function Attrs: nounwind uwtable
define internal range(i32 -1, 1) i32 @H5O__attr_to_dense_cb(ptr noundef %0, ptr noundef %1, i32 %2, ptr nocapture noundef writeonly %3, ptr nocapture noundef readonly %4) #0 {
  %6 = getelementptr inbounds i8, ptr %1, i64 24
  %7 = load ptr, ptr %6, align 8
  %8 = load ptr, ptr %4, align 8
  %9 = getelementptr inbounds i8, ptr %4, i64 8
  %10 = load ptr, ptr %9, align 8
  %11 = tail call i32 @H5A__dense_insert(ptr noundef %8, ptr noundef %10, ptr noundef %7) #9
  %12 = icmp slt i32 %11, 0
  br i1 %12, label %13, label %17

13:                                               ; preds = %5
  %14 = load i64, ptr @H5E_OHDR_g, align 8
  %15 = load i64, ptr @H5E_CANTINSERT_g, align 8
  %16 = tail call i32 (ptr, ptr, i32, i64, i64, ptr, ...) @H5E_printf_stack(ptr noundef nonnull @.str, ptr noundef nonnull @__func__.H5O__attr_to_dense_cb, i32 noundef 173, i64 noundef %14, i64 noundef %15, ptr noundef nonnull @.str.10) #9
  br label %26

17:                                               ; preds = %5
  %18 = load ptr, ptr %4, align 8
  %19 = tail call i32 @H5O__release_mesg(ptr noundef %18, ptr noundef %0, ptr noundef nonnull %1, i1 noundef zeroext false) #9
  %20 = icmp slt i32 %19, 0
  br i1 %20, label %21, label %25

21:                                               ; preds = %17
  %22 = load i64, ptr @H5E_OHDR_g, align 8
  %23 = load i64, ptr @H5E_CANTDELETE_g, align 8
  %24 = tail call i32 (ptr, ptr, i32, i64, i64, ptr, ...) @H5E_printf_stack(ptr noundef nonnull @.str, ptr noundef nonnull @__func__.H5O__attr_to_dense_cb, i32 noundef 178, i64 noundef %22, i64 noundef %23, ptr noundef nonnull @.str.53) #9
  br label %26

25:                                               ; preds = %17
  store i32 1, ptr %3, align 4
  br label %26

26:                                               ; preds = %25, %21, %13
  %.0 = phi i32 [ -1, %13 ], [ -1, %21 ], [ 0, %25 ]
  ret i32 %.0
}